target datalayout = "e-m:e-p270:32:32-p271:32:32-p272:64:64-i64:64-i128:128-f80:128-n8:16:32:64-S128"
target triple = "x86_64-pc-linux-gnu"

%struct.pmix_pointer_array_t = type { %struct.pmix_object_t, i32, i32, i32, i32, i32, ptr, ptr }
%struct.pmix_object_t = type { %union.pthread_mutex_t, ptr, i32, %struct.pmix_tma }
%union.pthread_mutex_t = type { %struct.__pthread_mutex_s }
%struct.__pthread_mutex_s = type { i32, i32, i32, i32, i32, i16, i16, %struct.__pthread_internal_list }
%struct.__pthread_internal_list = type { ptr, ptr }
%struct.pmix_tma = type { ptr, ptr, ptr, ptr, ptr, ptr, ptr, ptr }
%struct.pmix_cli_result_t = type { %struct.pmix_object_t, %struct.pmix_list_t, ptr }
%struct.pmix_list_t = type { %struct.pmix_object_t, %struct.pmix_list_item_t, i64 }
%struct.pmix_list_item_t = type { %struct.pmix_object_t, ptr, ptr, i32 }
%struct.pmix_cli_item_t = type { %struct.pmix_list_item_t, ptr, ptr }

@prte_info_ver_full = dso_local global ptr @.str, align 8
@prte_info_type_prte = external global ptr, align 8
@mca_types = external global %struct.pmix_pointer_array_t, align 8
@prte_info_component_all = external global ptr, align 8
@prte_info_type_all = external global ptr, align 8
@prte_info_cmd_line = external global %struct.pmix_cli_result_t, align 8
@.str.17 = private unnamed_addr constant [13 x i8] c"show-version\00", align 1
@prte_info_ver_all = internal global ptr @.str.20, align 8

; Function Attrs: inlinehint nounwind uwtable
define internal ptr @pmix_cmd_line_get_param(ptr noundef %0, ptr noundef %1) #4 {
  %3 = alloca ptr, align 8
  %4 = alloca ptr, align 8
  %5 = alloca ptr, align 8
  %6 = alloca ptr, align 8
  %7 = alloca i32, align 4
  store ptr %0, ptr %4, align 8, !tbaa !23
  store ptr %1, ptr %5, align 8, !tbaa !4
  call void @llvm.lifetime.start.p0(i64 8, ptr %6) #8
  %8 = load ptr, ptr %4, align 8, !tbaa !23
  %9 = getelementptr inbounds nuw %struct.pmix_cli_result_t, ptr %8, i32 0, i32 1
  %10 = getelementptr inbounds nuw %struct.pmix_list_t, ptr %9, i32 0, i32 1
  %11 = getelementptr inbounds nuw %struct.pmix_list_item_t, ptr %10, i32 0, i32 1
  %12 = load ptr, ptr %11, align 8, !tbaa !49
  store ptr %12, ptr %6, align 8, !tbaa !23
  br label %13

13:                                               ; preds = %29, %2
  %14 = load ptr, ptr %6, align 8, !tbaa !23
  %15 = load ptr, ptr %4, align 8, !tbaa !23
  %16 = getelementptr inbounds nuw %struct.pmix_cli_result_t, ptr %15, i32 0, i32 1
  %17 = getelementptr inbounds nuw %struct.pmix_list_t, ptr %16, i32 0, i32 1
  %18 = icmp ne ptr %14, %17
  br i1 %18, label %19, label %33

19:                                               ; preds = %13
  %20 = load ptr, ptr %6, align 8, !tbaa !23
  %21 = getelementptr inbounds nuw %struct.pmix_cli_item_t, ptr %20, i32 0, i32 1
  %22 = load ptr, ptr %21, align 8, !tbaa !53
  %23 = load ptr, ptr %5, align 8, !tbaa !4
  %24 = call i32 @strcmp(ptr noundef %22, ptr noundef %23) #9
  %25 = icmp eq i32 0, %24
  br i1 %25, label %26, label %28

26:                                               ; preds = %19
  %27 = load ptr, ptr %6, align 8, !tbaa !23
  store ptr %27, ptr %3, align 8
  store i32 1, ptr %7, align 4
  br label %34

28:                                               ; preds = %19
  br label %29

29:                                               ; preds = %28
  %30 = load ptr, ptr %6, align 8, !tbaa !23
  %31 = getelementptr inbounds nuw %struct.pmix_list_item_t, ptr %30, i32 0, i32 1
  %32 = load ptr, ptr %31, align 8, !tbaa !47
  store ptr %32, ptr %6, align 8, !tbaa !23
  br label %13, !llvm.loop !54

33:                                               ; preds = %13
  store ptr null, ptr %3, align 8
  store i32 1, ptr %7, align 4
  br label %34

34:                                               ; preds = %33, %26
  call void @llvm.lifetime.end.p0(i64 8, ptr %6) #8
  %35 = load ptr, ptr %3, align 8
  ret ptr %35
}

; Function Attrs: inlinehint nounwind uwtable
define internal ptr @pmix_pointer_array_get_item(ptr noundef %0, i32 noundef %1) #4 {
  %3 = alloca ptr, align 8
  %4 = alloca ptr, align 8
  %5 = alloca i32, align 4
  %6 = alloca ptr, align 8
  %7 = alloca i32, align 4
  store ptr %0, ptr %4, align 8, !tbaa !30
  store i32 %1, ptr %5, align 4, !tbaa !13
  call void @llvm.lifetime.start.p0(i64 8, ptr %6) #8
  %8 = load i32, ptr %5, align 4, !tbaa !13
  %9 = icmp sgt i32 0, %8
  br i1 %9, label %16, label %10

10:                                               ; preds = %2
  %11 = load ptr, ptr %4, align 8, !tbaa !30
  %12 = getelementptr inbounds nuw %struct.pmix_pointer_array_t, ptr %11, i32 0, i32 3
  %13 = load i32, ptr %12, align 8, !tbaa !15
  %14 = load i32, ptr %5, align 4, !tbaa !13
  %15 = icmp sle i32 %13, %14
  br label %16

16:                                               ; preds = %10, %2
  %17 = phi i1 [ true, %2 ], [ %15, %10 ]
  %18 = xor i1 %17, true
  %19 = xor i1 %18, true
  %20 = zext i1 %19 to i32
  %21 = sext i32 %20 to i64
  %22 = call i64 @llvm.expect.i64(i64 %21, i64 0)
  %23 = icmp ne i64 %22, 0
  br i1 %23, label %24, label %25

24:                                               ; preds = %16
  store ptr null, ptr %3, align 8
  store i32 1, ptr %7, align 4
  br label %34

25:                                               ; preds = %16
  %26 = load ptr, ptr %4, align 8, !tbaa !30
  %27 = getelementptr inbounds nuw %struct.pmix_pointer_array_t, ptr %26, i32 0, i32 7
  %28 = load ptr, ptr %27, align 8, !tbaa !32
  %29 = load i32, ptr %5, align 4, !tbaa !13
  %30 = sext i32 %29 to i64
  %31 = getelementptr inbounds ptr, ptr %28, i64 %30
  %32 = load ptr, ptr %31, align 8, !tbaa !23
  store ptr %32, ptr %6, align 8, !tbaa !23
  %33 = load ptr, ptr %6, align 8, !tbaa !23
  store ptr %33, ptr %3, align 8
  store i32 1, ptr %7, align 4
  br label %34

34:                                               ; preds = %25, %24
  call void @llvm.lifetime.end.p0(i64 8, ptr %6) #8
  %35 = load ptr, ptr %3, align 8
  ret ptr %35
}

; Function Attrs: nounwind uwtable
define dso_local void @prte_info_do_version(i1 noundef zeroext %0) #0 {
  %2 = alloca i8, align 1
  %3 = alloca ptr, align 8
  %4 = alloca ptr, align 8
  %5 = alloca ptr, align 8
  %6 = alloca ptr, align 8
  %7 = alloca i32, align 4
  %8 = alloca ptr, align 8
  %9 = zext i1 %0 to i8
  store i8 %9, ptr %2, align 1, !tbaa !9
  call void @llvm.lifetime.start.p0(i64 8, ptr %3) #8
  call void @llvm.lifetime.start.p0(i64 8, ptr %4) #8
  call void @llvm.lifetime.start.p0(i64 8, ptr %5) #8
  call void @llvm.lifetime.start.p0(i64 8, ptr %6) #8
  store ptr null, ptr %6, align 8, !tbaa !4
  call void @llvm.lifetime.start.p0(i64 4, ptr %7) #8
  call void @llvm.lifetime.start.p0(i64 8, ptr %8) #8
  call void @prte_info_components_open()
  %10 = load i8, ptr %2, align 1, !tbaa !9, !range !11, !noundef !12
  %11 = trunc i8 %10 to i1
  br i1 %11, label %12, label %32

12:                                               ; preds = %1
  %13 = load ptr, ptr @prte_info_ver_full, align 8, !tbaa !4
  call void @prte_info_show_prte_version(ptr noundef %13)
  store i32 0, ptr %7, align 4, !tbaa !13
  br label %14

14:                                               ; preds = %28, %12
  %15 = load i32, ptr %7, align 4, !tbaa !13
  %16 = load i32, ptr getelementptr inbounds nuw (%struct.pmix_pointer_array_t, ptr @mca_types, i32 0, i32 3), align 8, !tbaa !15
  %17 = icmp slt i32 %15, %16
  br i1 %17, label %18, label %31

18:                                               ; preds = %14
  %19 = load i32, ptr %7, align 4, !tbaa !13
  %20 = call ptr @pmix_pointer_array_get_item(ptr noundef @mca_types, i32 noundef %19)
  store ptr %20, ptr %6, align 8, !tbaa !4
  %21 = icmp eq ptr null, %20
  br i1 %21, label %22, label %23

22:                                               ; preds = %18
  br label %28

23:                                               ; preds = %18
  %24 = load ptr, ptr %6, align 8, !tbaa !4
  %25 = load ptr, ptr @prte_info_component_all, align 8, !tbaa !4
  %26 = load ptr, ptr @prte_info_ver_full, align 8, !tbaa !4
  %27 = load ptr, ptr @prte_info_type_all, align 8, !tbaa !4
  call void @prte_info_show_component_version(ptr noundef %24, ptr noundef %25, ptr noundef %26, ptr noundef %27)
  br label %28

28:                                               ; preds = %23, %22
  %29 = load i32, ptr %7, align 4, !tbaa !13
  %30 = add nsw i32 %29, 1
  store i32 %30, ptr %7, align 4, !tbaa !13
  br label %14, !llvm.loop !21

31:                                               ; preds = %14
  br label %94

32:                                               ; preds = %1
  %33 = call ptr @pmix_cmd_line_get_param(ptr noundef @prte_info_cmd_line, ptr noundef @.str.17)
  store ptr %33, ptr %8, align 8, !tbaa !23
  %34 = load ptr, ptr %8, align 8, !tbaa !23
  %35 = icmp ne ptr null, %34
  br i1 %35, label %36, label %93

36:                                               ; preds = %32
  %37 = load ptr, ptr %8, align 8, !tbaa !23
  %38 = getelementptr inbounds nuw %struct.pmix_cli_item_t, ptr %37, i32 0, i32 2
  %39 = load ptr, ptr %38, align 8, !tbaa !24
  %40 = getelementptr inbounds ptr, ptr %39, i64 0
  %41 = load ptr, ptr %40, align 8, !tbaa !4
  %42 = call ptr @PMIx_Argv_split(ptr noundef %41, i32 noundef 58)
  store ptr %42, ptr %5, align 8, !tbaa !29
  %43 = load ptr, ptr %5, align 8, !tbaa !29
  %44 = getelementptr inbounds ptr, ptr %43, i64 0
  %45 = load ptr, ptr %44, align 8, !tbaa !4
  store ptr %45, ptr %3, align 8, !tbaa !4
  %46 = load ptr, ptr %5, align 8, !tbaa !29
  %47 = getelementptr inbounds ptr, ptr %46, i64 1
  %48 = load ptr, ptr %47, align 8, !tbaa !4
  %49 = icmp eq ptr null, %48
  br i1 %49, label %50, label %52

50:                                               ; preds = %36
  %51 = load ptr, ptr @prte_info_ver_all, align 8, !tbaa !4
  store ptr %51, ptr %4, align 8, !tbaa !4
  br label %70

52:                                               ; preds = %36
  %53 = load ptr, ptr %5, align 8, !tbaa !29
  %54 = getelementptr inbounds ptr, ptr %53, i64 2
  %55 = load ptr, ptr %54, align 8, !tbaa !4
  %56 = icmp ne ptr null, %55
  br i1 %56, label %57, label %64

57:                                               ; preds = %52
  %58 = load ptr, ptr %5, align 8, !tbaa !29
  %59 = getelementptr inbounds ptr, ptr %58, i64 1
  %60 = load ptr, ptr %59, align 8, !tbaa !4
  store ptr %60, ptr %6, align 8, !tbaa !4
  %61 = load ptr, ptr %5, align 8, !tbaa !29
  %62 = getelementptr inbounds ptr, ptr %61, i64 2
  %63 = load ptr, ptr %62, align 8, !tbaa !4
  store ptr %63, ptr %4, align 8, !tbaa !4
  br label %69

64:                                               ; preds = %52
  %65 = load ptr, ptr %5, align 8, !tbaa !29
  %66 = getelementptr inbounds ptr, ptr %65, i64 1
  %67 = load ptr, ptr %66, align 8, !tbaa !4
  store ptr %67, ptr %6, align 8, !tbaa !4
  %68 = load ptr, ptr @prte_info_ver_all, align 8, !tbaa !4
  store ptr %68, ptr %4, align 8, !tbaa !4
  br label %69

69:                                               ; preds = %64, %57
  br label %70

70:                                               ; preds = %69, %50
  %71 = load ptr, ptr @prte_info_type_prte, align 8, !tbaa !4
  %72 = load ptr, ptr %3, align 8, !tbaa !4
  %73 = call i32 @strcmp(ptr noundef %71, ptr noundef %72) #9
  %74 = icmp eq i32 0, %73
  br i1 %74, label %75, label %77

75:                                               ; preds = %70
  %76 = load ptr, ptr %4, align 8, !tbaa !4
  call void @prte_info_show_prte_version(ptr noundef %76)
  br label %91

77:                                               ; preds = %70
  %78 = load ptr, ptr %6, align 8, !tbaa !4
  %79 = icmp ne ptr null, %78
  br i1 %79, label %80, label %85

80:                                               ; preds = %77
  %81 = load ptr, ptr %3, align 8, !tbaa !4
  %82 = load ptr, ptr %6, align 8, !tbaa !4
  %83 = load ptr, ptr %4, align 8, !tbaa !4
  %84 = load ptr, ptr @prte_info_ver_all, align 8, !tbaa !4
  call void @prte_info_show_component_version(ptr noundef %81, ptr noundef %82, ptr noundef %83, ptr noundef %84)
  br label %90

85:                                               ; preds = %77
  %86 = load ptr, ptr %3, align 8, !tbaa !4
  %87 = load ptr, ptr @prte_info_component_all, align 8, !tbaa !4
  %88 = load ptr, ptr %4, align 8, !tbaa !4
  %89 = load ptr, ptr @prte_info_ver_all, align 8, !tbaa !4
  call void @prte_info_show_component_version(ptr noundef %86, ptr noundef %87, ptr noundef %88, ptr noundef %89)
  br label %90

90:                                               ; preds = %85, %80
  br label %91

91:                                               ; preds = %90, %75
  %92 = load ptr, ptr %5, align 8, !tbaa !29
  call void @PMIx_Argv_free(ptr noundef %92)
  br label %93

93:                                               ; preds = %91, %32
  br label %94

94:                                               ; preds = %93, %31
  call void @llvm.lifetime.end.p0(i64 8, ptr %8) #8
  call void @llvm.lifetime.end.p0(i64 4, ptr %7) #8
  call void @llvm.lifetime.end.p0(i64 8, ptr %6) #8
  call void @llvm.lifetime.end.p0(i64 8, ptr %5) #8
  call void @llvm.lifetime.end.p0(i64 8, ptr %4) #8
  call void @llvm.lifetime.end.p0(i64 8, ptr %3) #8
  ret void
}