; Function Attrs: nounwind uwtable
define dso_local void @prte_info_do_version(i1 noundef zeroext %0) local_unnamed_addr #0 {
  tail call void @prte_info_components_open() #6
  br i1 %0, label %2, label %18

2:                                                ; preds = %1
  %3 = load ptr, ptr @prte_info_ver_full, align 8, !tbaa !4
  tail call void @prte_info_show_prte_version(ptr noundef %3)
  %4 = load i32, ptr getelementptr inbounds nuw (i8, ptr @mca_types, i64 128), align 8, !tbaa !9
  %5 = icmp sgt i32 %4, 0
  br i1 %5, label %pmix_pointer_array_get_item.exit.preheader, label %pmix_cmd_line_get_param.exit.thread

pmix_pointer_array_get_item.exit.preheader:       ; preds = %2
  %mca_types.val29.pre39 = load ptr, ptr getelementptr inbounds nuw (i8, ptr @mca_types, i64 152), align 8
  br label %pmix_pointer_array_get_item.exit

pmix_pointer_array_get_item.exit:                 ; preds = %pmix_pointer_array_get_item.exit.preheader, %14
  %6 = phi i32 [ %4, %pmix_pointer_array_get_item.exit.preheader ], [ %15, %14 ]
  %mca_types.val29 = phi ptr [ %mca_types.val29.pre39, %pmix_pointer_array_get_item.exit.preheader ], [ %mca_types.val2940, %14 ]
  %indvars.iv = phi i64 [ 0, %pmix_pointer_array_get_item.exit.preheader ], [ %indvars.iv.next, %14 ]
  %7 = getelementptr inbounds nuw ptr, ptr %mca_types.val29, i64 %indvars.iv
  %8 = load ptr, ptr %7, align 8, !tbaa !16
  %9 = icmp eq ptr %8, null
  br i1 %9, label %14, label %10

10:                                               ; preds = %pmix_pointer_array_get_item.exit
  %11 = load ptr, ptr @prte_info_component_all, align 8, !tbaa !4
  %12 = load ptr, ptr @prte_info_ver_full, align 8, !tbaa !4
  %13 = load ptr, ptr @prte_info_type_all, align 8, !tbaa !4
  tail call void @prte_info_show_component_version(ptr noundef nonnull %8, ptr noundef %11, ptr noundef %12, ptr noundef %13)
  %mca_types.val29.pre = load ptr, ptr getelementptr inbounds nuw (i8, ptr @mca_types, i64 152), align 8
  %.pre = load i32, ptr getelementptr inbounds nuw (i8, ptr @mca_types, i64 128), align 8, !tbaa !9
  br label %14

14:                                               ; preds = %pmix_pointer_array_get_item.exit, %10
  %15 = phi i32 [ %6, %pmix_pointer_array_get_item.exit ], [ %.pre, %10 ]
  %mca_types.val2940 = phi ptr [ %mca_types.val29, %pmix_pointer_array_get_item.exit ], [ %mca_types.val29.pre, %10 ]
  %indvars.iv.next = add nuw nsw i64 %indvars.iv, 1
  %16 = sext i32 %15 to i64
  %17 = icmp slt i64 %indvars.iv.next, %16
  br i1 %17, label %pmix_pointer_array_get_item.exit, label %pmix_cmd_line_get_param.exit.thread, !llvm.loop !17

18:                                               ; preds = %1
  %.01.i = load ptr, ptr getelementptr inbounds nuw (i8, ptr @prte_info_cmd_line, i64 360), align 8, !tbaa !19
  %.not2.i = icmp eq ptr %.01.i, getelementptr inbounds nuw (i8, ptr @prte_info_cmd_line, i64 240)
  br i1 %.not2.i, label %pmix_cmd_line_get_param.exit.thread, label %.lr.ph.i

.lr.ph.i:                                         ; preds = %18, %23
  %.03.i = phi ptr [ %.0.i30, %23 ], [ %.01.i, %18 ]
  %19 = getelementptr inbounds nuw i8, ptr %.03.i, i64 144
  %20 = load ptr, ptr %19, align 8, !tbaa !22
  %21 = tail call i32 @strcmp(ptr noundef nonnull dereferenceable(1) %20, ptr noundef nonnull dereferenceable(13) @.str.17) #7
  %22 = icmp eq i32 %21, 0
  br i1 %22, label %pmix_cmd_line_get_param.exit, label %23

23:                                               ; preds = %.lr.ph.i
  %24 = getelementptr inbounds nuw i8, ptr %.03.i, i64 120
  %.0.i30 = load ptr, ptr %24, align 8, !tbaa !19
  %.not.i = icmp eq ptr %.0.i30, getelementptr inbounds nuw (i8, ptr @prte_info_cmd_line, i64 240)
  br i1 %.not.i, label %pmix_cmd_line_get_param.exit.thread, label %.lr.ph.i, !llvm.loop !25

pmix_cmd_line_get_param.exit:                     ; preds = %.lr.ph.i
  %.not = icmp eq ptr %.03.i, null
  br i1 %.not, label %pmix_cmd_line_get_param.exit.thread, label %25

25:                                               ; preds = %pmix_cmd_line_get_param.exit
  %26 = getelementptr inbounds nuw i8, ptr %.03.i, i64 152
  %27 = load ptr, ptr %26, align 8, !tbaa !26
  %28 = load ptr, ptr %27, align 8, !tbaa !4
  %29 = tail call ptr @PMIx_Argv_split(ptr noundef %28, i32 noundef 58) #6
  %30 = load ptr, ptr %29, align 8, !tbaa !4
  %31 = getelementptr inbounds nuw i8, ptr %29, i64 8
  %32 = load ptr, ptr %31, align 8, !tbaa !4
  %33 = icmp eq ptr %32, null
  br i1 %33, label %34, label %.thread

34:                                               ; preds = %25
  %35 = load ptr, ptr @prte_info_type_prte, align 8, !tbaa !4
  %36 = tail call i32 @strcmp(ptr noundef nonnull dereferenceable(1) %35, ptr noundef nonnull dereferenceable(1) %30) #7
  %37 = icmp eq i32 %36, 0
  br i1 %37, label %43, label %45

.thread:                                          ; preds = %25
  %38 = getelementptr inbounds nuw i8, ptr %29, i64 16
  %39 = load ptr, ptr %38, align 8, !tbaa !4
  %.not27 = icmp eq ptr %39, null
  %.str.20. = select i1 %.not27, ptr @.str.20, ptr %39
  %40 = load ptr, ptr @prte_info_type_prte, align 8, !tbaa !4
  %41 = tail call i32 @strcmp(ptr noundef nonnull dereferenceable(1) %40, ptr noundef nonnull dereferenceable(1) %30) #7
  %42 = icmp eq i32 %41, 0
  br i1 %42, label %43, label %44

43:                                               ; preds = %.thread, %34
  %.043 = phi ptr [ %.str.20., %.thread ], [ @.str.20, %34 ]
  tail call void @prte_info_show_prte_version(ptr noundef nonnull %.043)
  br label %47

44:                                               ; preds = %.thread
  tail call void @prte_info_show_component_version(ptr noundef nonnull %30, ptr noundef nonnull %32, ptr noundef nonnull %.str.20., ptr noundef nonnull @.str.20)
  br label %47

45:                                               ; preds = %34
  %46 = load ptr, ptr @prte_info_component_all, align 8, !tbaa !4
  tail call void @prte_info_show_component_version(ptr noundef nonnull %30, ptr noundef %46, ptr noundef nonnull @.str.20, ptr noundef nonnull @.str.20)
  br label %47

47:                                               ; preds = %44, %45, %43
  tail call void @PMIx_Argv_free(ptr noundef nonnull %29) #6
  br label %pmix_cmd_line_get_param.exit.thread

pmix_cmd_line_get_param.exit.thread:              ; preds = %23, %14, %2, %18, %pmix_cmd_line_get_param.exit, %47
  ret void
}